; Function Attrs: nounwind uwtable
define internal fastcc range(i32 0, 2) i32 @make_const(ptr noundef writeonly captures(none) %0, ptr noundef %1, ptr noundef %2) unnamed_addr #0 {
  %4 = icmp eq ptr %1, null
  br i1 %4, label %5, label %9

5:                                                ; preds = %3
  %6 = load ptr, ptr @PyExc_KeyboardInterrupt, align 8, !tbaa !35
  %7 = tail call i32 @PyErr_ExceptionMatches(ptr noundef %6) #8
  %.not = icmp eq i32 %7, 0
  br i1 %.not, label %8, label %Py_DECREF.exit

8:                                                ; preds = %5
  tail call void @PyErr_Clear() #8
  br label %Py_DECREF.exit

9:                                                ; preds = %3
  %10 = tail call i32 @_PyArena_AddPyObject(ptr noundef %2, ptr noundef nonnull %1) #8
  %11 = icmp slt i32 %10, 0
  br i1 %11, label %12, label %18

12:                                               ; preds = %9
  %13 = load i32, ptr %1, align 8, !tbaa !28
  %.not.i = icmp sgt i32 %13, -1
  br i1 %.not.i, label %14, label %Py_DECREF.exit

14:                                               ; preds = %12
  %15 = add nsw i32 %13, -1
  store i32 %15, ptr %1, align 8, !tbaa !28
  %16 = icmp eq i32 %15, 0
  br i1 %16, label %17, label %Py_DECREF.exit

17:                                               ; preds = %14
  tail call void @_Py_Dealloc(ptr noundef nonnull %1) #8
  br label %Py_DECREF.exit

18:                                               ; preds = %9
  store i32 20, ptr %0, align 8, !tbaa !101
  %19 = getelementptr inbounds nuw i8, ptr %0, i64 8
  %20 = getelementptr inbounds nuw i8, ptr %0, i64 16
  store ptr null, ptr %20, align 8, !tbaa !28
  store ptr %1, ptr %19, align 8, !tbaa !28
  br label %Py_DECREF.exit

Py_DECREF.exit:                                   ; preds = %17, %14, %12, %5, %18, %8
  %.0 = phi i32 [ 1, %8 ], [ 1, %18 ], [ 0, %5 ], [ 0, %12 ], [ 0, %14 ], [ 0, %17 ]
  ret i32 %.0
}